#include <math.h>
#include <stdio.h>
#include <stdlib.h>
#include <string.h>

int main()
{
	int n,i,j;
	char a[10000][256],b[10000][256];
	scanf("%d",&n);
	for(i=0;i<n;i++)
	{
		scanf("%s",a[i]);
		for(j=0;j<256;j++)
		{
			if(a[i][j]=='A')
				b[i][j]='T';
			if(a[i][j]=='T')
				b[i][j]='A';
			if(a[i][j]=='G')
				b[i][j]='C';
			if(a[i][j]=='C')
				b[i][j]='G';
			if(a[i][j]=='\0')
			{
				b[i][j]='\0';
				break;
			}
		}
	}
	for(i=0;i<n;i++)
	{
		printf("%s\n",b[i]);
	}
	return 0;
}